target datalayout = "e-m:e-p270:32:32-p271:32:32-p272:64:64-i64:64-i128:128-f80:128-n8:16:32:64-S128"
target triple = "x86_64-pc-linux-gnu"

; Function Attrs: mustprogress uwtable
define void @_ZN6icu_7712RegexCompile27findCaseInsensitiveStartersEiPNS_10UnicodeSetE(i32 noundef %0, ptr noundef %1) #1 align 2 {
  %3 = alloca i32, align 4
  %4 = alloca ptr, align 8
  %5 = alloca i32, align 4
  %6 = alloca i32, align 4
  %7 = alloca i32, align 4
  %8 = alloca i32, align 4
  %9 = alloca i32, align 4
  %10 = alloca i32, align 4
  store i32 %0, ptr %3, align 4, !tbaa !14
  store ptr %1, ptr %4, align 8, !tbaa !96
  %11 = load i32, ptr %3, align 4, !tbaa !14
  %12 = icmp slt i32 %11, 0
  br i1 %12, label %16, label %13

13:                                               ; preds = %2
  %14 = load i32, ptr %3, align 4, !tbaa !14
  %15 = icmp sgt i32 %14, 1114111
  br i1 %15, label %16, label %17

16:                                               ; preds = %13, %2
  call void @abort() #15
  unreachable

17:                                               ; preds = %13
  %18 = load i32, ptr %3, align 4, !tbaa !14
  %19 = call signext i8 @u_hasBinaryProperty_77(i32 noundef %18, i32 noundef 34)
  %20 = icmp ne i8 %19, 0
  br i1 %20, label %21, label %99

21:                                               ; preds = %17
  call void @llvm.lifetime.start.p0(i64 4, ptr %5) #13
  %22 = load i32, ptr %3, align 4, !tbaa !14
  %23 = call i32 @u_foldCase_77(i32 noundef %22, i32 noundef 0)
  store i32 %23, ptr %5, align 4, !tbaa !14
  %24 = load ptr, ptr %4, align 8, !tbaa !96
  %25 = load i32, ptr %5, align 4, !tbaa !14
  %26 = load i32, ptr %5, align 4, !tbaa !14
  %27 = call noundef nonnull align 8 dereferenceable(200) ptr @_ZN6icu_7710UnicodeSet3setEii(ptr noundef nonnull align 8 dereferenceable(200) %24, i32 noundef %25, i32 noundef %26)
  call void @llvm.lifetime.start.p0(i64 4, ptr %6) #13
  store i32 0, ptr %6, align 4, !tbaa !14
  br label %28

28:                                               ; preds = %36, %21
  %29 = load i32, ptr %6, align 4, !tbaa !14
  %30 = sext i32 %29 to i64
  %31 = getelementptr inbounds [50 x i32], ptr @_ZZN6icu_7712RegexCompile27findCaseInsensitiveStartersEiPNS_10UnicodeSetEE19RECaseFixCodePoints, i64 0, i64 %30
  %32 = load i32, ptr %31, align 4, !tbaa !14
  %33 = load i32, ptr %3, align 4, !tbaa !14
  %34 = icmp slt i32 %32, %33
  br i1 %34, label %35, label %39

35:                                               ; preds = %28
  br label %36

36:                                               ; preds = %35
  %37 = load i32, ptr %6, align 4, !tbaa !14
  %38 = add nsw i32 %37, 1
  store i32 %38, ptr %6, align 4, !tbaa !14
  br label %28, !llvm.loop !189

39:                                               ; preds = %28
  %40 = load i32, ptr %6, align 4, !tbaa !14
  %41 = sext i32 %40 to i64
  %42 = getelementptr inbounds [50 x i32], ptr @_ZZN6icu_7712RegexCompile27findCaseInsensitiveStartersEiPNS_10UnicodeSetEE19RECaseFixCodePoints, i64 0, i64 %41
  %43 = load i32, ptr %42, align 4, !tbaa !14
  %44 = load i32, ptr %3, align 4, !tbaa !14
  %45 = icmp eq i32 %43, %44
  br i1 %45, label %46, label %94

46:                                               ; preds = %39
  call void @llvm.lifetime.start.p0(i64 4, ptr %7) #13
  %47 = load i32, ptr %6, align 4, !tbaa !14
  %48 = sext i32 %47 to i64
  %49 = getelementptr inbounds [50 x i16], ptr @_ZZN6icu_7712RegexCompile27findCaseInsensitiveStartersEiPNS_10UnicodeSetEE22RECaseFixStringOffsets, i64 0, i64 %48
  %50 = load i16, ptr %49, align 2, !tbaa !72
  %51 = sext i16 %50 to i32
  store i32 %51, ptr %7, align 4, !tbaa !14
  call void @llvm.lifetime.start.p0(i64 4, ptr %8) #13
  %52 = load i32, ptr %6, align 4, !tbaa !14
  %53 = sext i32 %52 to i64
  %54 = getelementptr inbounds [50 x i16], ptr @_ZZN6icu_7712RegexCompile27findCaseInsensitiveStartersEiPNS_10UnicodeSetEE15RECaseFixCounts, i64 0, i64 %53
  %55 = load i16, ptr %54, align 2, !tbaa !72
  %56 = sext i16 %55 to i32
  store i32 %56, ptr %8, align 4, !tbaa !14
  call void @llvm.lifetime.start.p0(i64 4, ptr %9) #13
  store i32 0, ptr %9, align 4, !tbaa !14
  call void @llvm.lifetime.start.p0(i64 4, ptr %10) #13
  store i32 0, ptr %10, align 4, !tbaa !14
  br label %57

57:                                               ; preds = %90, %46
  %58 = load i32, ptr %10, align 4, !tbaa !14
  %59 = load i32, ptr %8, align 4, !tbaa !14
  %60 = icmp slt i32 %58, %59
  br i1 %60, label %62, label %61

61:                                               ; preds = %57
  call void @llvm.lifetime.end.p0(i64 4, ptr %10) #13
  br label %93

62:                                               ; preds = %57
  br label %63

63:                                               ; preds = %62
  %64 = load i32, ptr %7, align 4, !tbaa !14
  %65 = add nsw i32 %64, 1
  store i32 %65, ptr %7, align 4, !tbaa !14
  %66 = sext i32 %64 to i64
  %67 = getelementptr inbounds [105 x i16], ptr @_ZZN6icu_7712RegexCompile27findCaseInsensitiveStartersEiPNS_10UnicodeSetEE13RECaseFixData, i64 0, i64 %66
  %68 = load i16, ptr %67, align 2, !tbaa !115
  %69 = zext i16 %68 to i32
  store i32 %69, ptr %9, align 4, !tbaa !14
  %70 = load i32, ptr %9, align 4, !tbaa !14
  %71 = and i32 %70, -1024
  %72 = icmp eq i32 %71, 55296
  br i1 %72, label %73, label %84

73:                                               ; preds = %63
  %74 = load i32, ptr %9, align 4, !tbaa !14
  %75 = shl i32 %74, 10
  %76 = load i32, ptr %7, align 4, !tbaa !14
  %77 = add nsw i32 %76, 1
  store i32 %77, ptr %7, align 4, !tbaa !14
  %78 = sext i32 %76 to i64
  %79 = getelementptr inbounds [105 x i16], ptr @_ZZN6icu_7712RegexCompile27findCaseInsensitiveStartersEiPNS_10UnicodeSetEE13RECaseFixData, i64 0, i64 %78
  %80 = load i16, ptr %79, align 2, !tbaa !115
  %81 = zext i16 %80 to i32
  %82 = add nsw i32 %75, %81
  %83 = sub nsw i32 %82, 56613888
  store i32 %83, ptr %9, align 4, !tbaa !14
  br label %84

84:                                               ; preds = %73, %63
  br label %85

85:                                               ; preds = %84
  br label %86

86:                                               ; preds = %85
  %87 = load ptr, ptr %4, align 8, !tbaa !96
  %88 = load i32, ptr %9, align 4, !tbaa !14
  %89 = call noundef nonnull align 8 dereferenceable(200) ptr @_ZN6icu_7710UnicodeSet3addEi(ptr noundef nonnull align 8 dereferenceable(200) %87, i32 noundef %88)
  br label %90

90:                                               ; preds = %86
  %91 = load i32, ptr %10, align 4, !tbaa !14
  %92 = add nsw i32 %91, 1
  store i32 %92, ptr %10, align 4, !tbaa !14
  br label %57, !llvm.loop !190

93:                                               ; preds = %61
  call void @llvm.lifetime.end.p0(i64 4, ptr %9) #13
  call void @llvm.lifetime.end.p0(i64 4, ptr %8) #13
  call void @llvm.lifetime.end.p0(i64 4, ptr %7) #13
  br label %94

94:                                               ; preds = %93, %39
  %95 = load ptr, ptr %4, align 8, !tbaa !96
  %96 = call noundef nonnull align 8 dereferenceable(200) ptr @_ZN6icu_7710UnicodeSet9closeOverEi(ptr noundef nonnull align 8 dereferenceable(200) %95, i32 noundef 2)
  %97 = load ptr, ptr %4, align 8, !tbaa !96
  %98 = call noundef nonnull align 8 dereferenceable(200) ptr @_ZN6icu_7710UnicodeSet16removeAllStringsEv(ptr noundef nonnull align 8 dereferenceable(200) %97)
  call void @llvm.lifetime.end.p0(i64 4, ptr %6) #13
  call void @llvm.lifetime.end.p0(i64 4, ptr %5) #13
  br label %104

99:                                               ; preds = %17
  %100 = load ptr, ptr %4, align 8, !tbaa !96
  %101 = load i32, ptr %3, align 4, !tbaa !14
  %102 = load i32, ptr %3, align 4, !tbaa !14
  %103 = call noundef nonnull align 8 dereferenceable(200) ptr @_ZN6icu_7710UnicodeSet3setEii(ptr noundef nonnull align 8 dereferenceable(200) %100, i32 noundef %101, i32 noundef %102)
  br label %104

104:                                              ; preds = %99, %94
  br label %105

105:                                              ; preds = %104
  ret void
}