; Function Attrs: mustprogress uwtable
define void @_ZN6icu_7712RegexCompile27findCaseInsensitiveStartersEiPNS_10UnicodeSetE(i32 noundef %0, ptr noundef %1) local_unnamed_addr #1 align 2 {
  %or.cond = icmp ugt i32 %0, 1114111
  br i1 %or.cond, label %3, label %4

3:                                                ; preds = %2
  tail call void @abort() #17
  unreachable

4:                                                ; preds = %2
  %5 = tail call signext i8 @u_hasBinaryProperty_77(i32 noundef %0, i32 noundef 34)
  %.not = icmp eq i8 %5, 0
  br i1 %.not, label %41, label %6

6:                                                ; preds = %4
  %7 = tail call i32 @u_foldCase_77(i32 noundef %0, i32 noundef 0)
  %8 = tail call noundef nonnull align 8 dereferenceable(200) ptr @_ZN6icu_7710UnicodeSet3setEii(ptr noundef nonnull align 8 dereferenceable(200) %1, i32 noundef %7, i32 noundef %7)
  br label %9

9:                                                ; preds = %9, %6
  %indvars.iv = phi i64 [ %indvars.iv.next, %9 ], [ 0, %6 ]
  %10 = getelementptr inbounds nuw [50 x i32], ptr @_ZZN6icu_7712RegexCompile27findCaseInsensitiveStartersEiPNS_10UnicodeSetEE19RECaseFixCodePoints, i64 0, i64 %indvars.iv
  %11 = load i32, ptr %10, align 4, !tbaa !12
  %12 = icmp slt i32 %11, %0
  %indvars.iv.next = add nuw nsw i64 %indvars.iv, 1
  br i1 %12, label %9, label %13, !llvm.loop !159

13:                                               ; preds = %9
  %.not40 = icmp eq i32 %11, %0
  br i1 %.not40, label %.lr.ph.preheader, label %.loopexit

.lr.ph.preheader:                                 ; preds = %13
  %14 = getelementptr inbounds nuw [50 x i16], ptr @_ZZN6icu_7712RegexCompile27findCaseInsensitiveStartersEiPNS_10UnicodeSetEE15RECaseFixCounts, i64 0, i64 %indvars.iv
  %15 = load i16, ptr %14, align 2, !tbaa !60
  %16 = getelementptr inbounds nuw [50 x i16], ptr @_ZZN6icu_7712RegexCompile27findCaseInsensitiveStartersEiPNS_10UnicodeSetEE22RECaseFixStringOffsets, i64 0, i64 %indvars.iv
  %17 = load i16, ptr %16, align 2, !tbaa !60
  %18 = sext i16 %17 to i32
  %19 = tail call i16 @llvm.smax.i16(i16 %15, i16 1)
  %smax = zext nneg i16 %19 to i32
  br label %.lr.ph

.lr.ph:                                           ; preds = %.lr.ph.preheader, %36
  %.035 = phi i32 [ %38, %36 ], [ 0, %.lr.ph.preheader ]
  %.03034 = phi i32 [ %.1, %36 ], [ %18, %.lr.ph.preheader ]
  %20 = add nsw i32 %.03034, 1
  %21 = sext i32 %.03034 to i64
  %22 = getelementptr inbounds [105 x i16], ptr @_ZZN6icu_7712RegexCompile27findCaseInsensitiveStartersEiPNS_10UnicodeSetEE13RECaseFixData, i64 0, i64 %21
  %23 = load i16, ptr %22, align 2, !tbaa !100
  %24 = zext i16 %23 to i32
  %25 = and i32 %24, 64512
  %26 = icmp eq i32 %25, 55296
  br i1 %26, label %27, label %36

27:                                               ; preds = %.lr.ph
  %28 = shl nuw nsw i32 %24, 10
  %29 = add nsw i32 %.03034, 2
  %30 = sext i32 %20 to i64
  %31 = getelementptr inbounds [105 x i16], ptr @_ZZN6icu_7712RegexCompile27findCaseInsensitiveStartersEiPNS_10UnicodeSetEE13RECaseFixData, i64 0, i64 %30
  %32 = load i16, ptr %31, align 2, !tbaa !100
  %33 = zext i16 %32 to i32
  %34 = add nsw i32 %28, -56613888
  %35 = add nuw nsw i32 %34, %33
  br label %36

36:                                               ; preds = %27, %.lr.ph
  %.1 = phi i32 [ %29, %27 ], [ %20, %.lr.ph ]
  %.028 = phi i32 [ %35, %27 ], [ %24, %.lr.ph ]
  %37 = tail call noundef nonnull align 8 dereferenceable(200) ptr @_ZN6icu_7710UnicodeSet3addEi(ptr noundef nonnull align 8 dereferenceable(200) %1, i32 noundef %.028)
  %38 = add nuw nsw i32 %.035, 1
  %exitcond.not = icmp eq i32 %38, %smax
  br i1 %exitcond.not, label %.loopexit, label %.lr.ph, !llvm.loop !160

.loopexit:                                        ; preds = %36, %13
  %39 = tail call noundef nonnull align 8 dereferenceable(200) ptr @_ZN6icu_7710UnicodeSet9closeOverEi(ptr noundef nonnull align 8 dereferenceable(200) %1, i32 noundef 2)
  %40 = tail call noundef nonnull align 8 dereferenceable(200) ptr @_ZN6icu_7710UnicodeSet16removeAllStringsEv(ptr noundef nonnull align 8 dereferenceable(200) %1)
  br label %43

41:                                               ; preds = %4
  %42 = tail call noundef nonnull align 8 dereferenceable(200) ptr @_ZN6icu_7710UnicodeSet3setEii(ptr noundef nonnull align 8 dereferenceable(200) %1, i32 noundef %0, i32 noundef %0)
  br label %43

43:                                               ; preds = %.loopexit, %41
  ret void
}